; Function Attrs: nounwind uwtable
define ptr @dt_ioppr_get_pipe_current_profile_info(ptr noundef readonly captures(none) %0, ptr noundef readonly captures(none) %1) local_unnamed_addr #0 {
  %3 = getelementptr inbounds nuw i8, ptr %0, i64 664
  %4 = load ptr, ptr %3, align 8, !tbaa !106
  %5 = getelementptr inbounds nuw i8, ptr %4, i64 2080
  %6 = load ptr, ptr %5, align 16, !tbaa !129
  %7 = tail call i32 @dt_ioppr_get_iop_order(ptr noundef %6, ptr noundef nonnull @.str.1, i32 noundef 0) #17
  %8 = load ptr, ptr %3, align 8, !tbaa !106
  %9 = getelementptr inbounds nuw i8, ptr %8, i64 2080
  %10 = load ptr, ptr %9, align 16, !tbaa !129
  %11 = tail call i32 @dt_ioppr_get_iop_order(ptr noundef %10, ptr noundef nonnull @.str, i32 noundef 0) #17
  %12 = getelementptr inbounds nuw i8, ptr %0, i64 480
  %13 = load i32, ptr %12, align 16, !tbaa !130
  %14 = icmp slt i32 %13, %7
  %15 = icmp slt i32 %13, %11
  %. = select i1 %15, i64 304, i64 320
  %.sink = select i1 %14, i64 312, i64 %.
  %16 = getelementptr inbounds nuw i8, ptr %1, i64 %.sink
  %.0 = load ptr, ptr %16, align 8, !tbaa !131
  ret ptr %.0
}